target datalayout = "e-m:e-p270:32:32-p271:32:32-p272:64:64-i64:64-i128:128-f80:128-n8:16:32:64-S128"
target triple = "x86_64-pc-linux-gnu"

@.str = private unnamed_addr constant [32 x i8] c"../openssl/test/bio_core_test.c\00", align 1
@.str.1 = private unnamed_addr constant [28 x i8] c"Error parsing test options\0A\00", align 1
@.str.2 = private unnamed_addr constant [14 x i8] c"test_bio_core\00", align 1

; Function Attrs: nounwind uwtable
define dso_local i32 @setup_tests() #0 {
  %1 = alloca i32, align 4
  %2 = call i32 @test_skip_common_options()
  %3 = icmp ne i32 %2, 0
  br i1 %3, label %5, label %4

4:                                                ; preds = %0
  call void (ptr, i32, ptr, ...) @test_error(ptr noundef @.str, i32 noundef 113, ptr noundef @.str.1)
  store i32 0, ptr %1, align 4
  br label %6

5:                                                ; preds = %0
  call void @add_test(ptr noundef @.str.2, ptr noundef @test_bio_core)
  store i32 1, ptr %1, align 4
  br label %6

6:                                                ; preds = %5, %4
  %7 = load i32, ptr %1, align 4
  ret i32 %7
}